; Function Attrs: mustprogress nounwind uwtable
define dso_local void @_ZN4base5debug16ActivitySnapshotD2Ev(ptr noundef nonnull align 8 dereferenceable(76) %this) unnamed_addr #4 align 2 personality ptr @__gxx_personality_v0 {
entry:
  %activity_stack = getelementptr inbounds i8, ptr %this, i64 48
  %0 = load ptr, ptr %activity_stack, align 8
  %tobool.not.i.i.i = icmp eq ptr %0, null
  br i1 %tobool.not.i.i.i, label %_ZNSt6vectorIN4base5debug8ActivityESaIS2_EED2Ev.exit, label %if.then.i.i.i

if.then.i.i.i:                                    ; preds = %entry
  tail call void @_ZdlPv(ptr noundef nonnull %0) #18
  br label %_ZNSt6vectorIN4base5debug8ActivityESaIS2_EED2Ev.exit

_ZNSt6vectorIN4base5debug8ActivityESaIS2_EED2Ev.exit: ; preds = %entry, %if.then.i.i.i
  tail call void @_ZNSt7__cxx1112basic_stringIcSt11char_traitsIcESaIcEED1Ev(ptr noundef nonnull align 8 dereferenceable(32) %this) #17
  ret void
}